Certificate:
    Data:
        Version: 3 (0x2)
        Serial Number: 17592205155126 (0x100001239b36)
    Signature Algorithm: sha1WithRSAEncryption
        Issuer: C=US, O=rainmachine, CN=rainmachine-dev-certs1
        Validity
            Not Before: Sep  5 10:59:13 2016 GMT
            Not After : Oct 18 10:59:13 2046 GMT
        Subject: C=US, CN=20160905
        Subject Public Key Info:
            Public Key Algorithm: rsaEncryption
                Public-Key: (2048 bit)
                Modulus:
                    00:bf:9d:67:a1:a7:f1:6b:b6:2b:94:dc:56:6d:6e:
                    f1:92:31:04:c2:f7:f5:21:c4:20:a7:f4:09:d4:cc:
                    a2:c4:40:c9:77:37:bd:78:e3:aa:78:cf:b7:59:5c:
                    18:96:ba:57:fd:02:9e:d4:02:51:ea:c3:9c:bd:33:
                    fc:4c:33:a2:b5:26:e1:2b:40:b4:27:90:2b:9a:7a:
                    22:a8:6a:30:3a:0a:83:1f:75:23:9e:e4:b1:f0:39:
                    40:a6:16:cb:0a:11:93:b1:85:ad:e6:83:df:52:fb:
                    5e:b1:4d:ca:73:43:92:59:4c:b6:cf:56:9b:04:19:
                    9c:e3:c2:b6:ee:d5:8a:3c:e2:ca:1b:19:ba:eb:d4:
                    e3:a4:0c:ee:08:0e:4e:be:23:fd:dc:4d:a3:8b:53:
                    42:26:5b:2b:d4:35:6f:a5:cb:93:9f:ea:87:b3:0f:
                    e2:47:d7:4f:02:9c:ea:fa:42:fa:69:7c:27:0b:16:
                    ae:83:e2:4d:dc:4c:c5:9f:4b:aa:bc:a0:20:cf:2f:
                    94:f8:16:43:70:07:ac:71:d6:99:55:ac:e9:61:d2:
                    9e:d2:82:37:bc:37:d7:d2:f4:e0:62:7b:1b:30:9a:
                    31:60:c2:8e:fe:8d:f0:0f:69:5f:7b:32:01:60:68:
                    6d:26:0b:64:ff:a2:bb:34:13:b3:6d:92:56:f7:ba:
                    18:19
                Exponent: 65537 (0x10001)
        X509v3 extensions:
            X509v3 Basic Constraints: 
                CA:FALSE
            X509v3 Key Usage: 
                Digital Signature, Non Repudiation, Key Encipherment
            X509v3 Subject Key Identifier: 
                AF:BE:0B:3B:99:85:34:02:81:48:57:72:A4:48:B3:7F:6C:35:9E:DC
            X509v3 Authority Key Identifier: 
                DirName:/C=US/O=rainmachine/CN=rainmachine-dev-certs1
                serial:F3:9F:DD:1D:BE:ED:C6:AF

            Netscape CA Revocation Url: 
                http://ns.tremend.ro/rainmachine/ca-crl.pem
            Netscape Revocation Url: 
                http://ns.tremend.ro/rainmachine/revocation-url/ca-crl.pem
    Signature Algorithm: sha1WithRSAEncryption
         66:27:c4:80:b0:11:06:8c:2f:fd:ad:9a:b1:68:a8:e7:9c:59:
         96:26:f7:a5:1a:cf:1a:bf:f6:36:2b:f7:39:b7:fd:29:c0:6d:
         dc:68:5b:a9:10:55:70:49:d5:0a:ad:e1:b7:c4:72:b7:73:bc:
         e0:f0:39:96:a9:a3:ad:cb:66:eb:55:3e:dd:79:14:a1:7a:ec:
         a1:99:9e:72:04:66:d1:ae:5f:23:74:ce:68:73:f1:9e:ec:08:
         97:ca:81:ba:c3:8b:ce:e5:cd:2e:48:02:43:35:04:77:93:a4:
         a2:0e:28:4b:0f:6c:bf:88:34:ae:20:85:98:69:ec:0d:f6:a3:
         ee:b1:20:2c:a3:7a:cf:c1:d2:bb:81:c4:fb:82:38:b2:b8:7f:
         fa:09:d5:87:b6:97:69:55:b3:3f:64:06:da:b2:dc:bc:b1:6a:
         de:32:14:2a:cd:10:5d:10:d9:ca:88:b3:ae:36:23:4c:ad:de:
         f1:91:79:ed:2d:fe:94:0a:95:5c:1a:1f:af:2e:99:e4:44:34:
         d2:70:f2:ab:c9:08:5d:66:e3:6e:eb:f0:7c:1c:34:c8:cc:ee:
         56:63:6e:41:02:16:a6:a0:83:c4:90:7f:43:64:1d:3a:7d:da:
         58:fa:61:80:e8:69:c1:2b:9b:c6:63:a9:6b:1a:d1:c9:e2:67:
         b7:51:3c:03
-----BEGIN CERTIFICATE-----
MIIECDCCAvCgAwIBAgIGEAABI5s2MA0GCSqGSIb3DQEBBQUAMEQxCzAJBgNVBAYT
AlVTMRQwEgYDVQQKDAtyYWlubWFjaGluZTEfMB0GA1UEAwwWcmFpbm1hY2hpbmUt
ZGV2LWNlcnRzMTAeFw0xNjA5MDUxMDU5MTNaFw00NjEwMTgxMDU5MTNaMCAxCzAJ
BgNVBAYTAlVTMREwDwYDVQQDDAgyMDE2MDkwNTCCASIwDQYJKoZIhvcNAQEBBQAD
ggEPADCCAQoCggEBAL+dZ6Gn8Wu2K5TcVm1u8ZIxBML39SHEIKf0CdTMosRAyXc3
vXjjqnjPt1lcGJa6V/0CntQCUerDnL0z/EwzorUm4StAtCeQK5p6IqhqMDoKgx91
I57ksfA5QKYWywoRk7GFreaD31L7XrFNynNDkllMts9WmwQZnOPCtu7VijziyhsZ
uuvU46QM7ggOTr4j/dxNo4tTQiZbK9Q1b6XLk5/qh7MP4kfXTwKc6vpC+ml8JwsW
roPiTdxMxZ9LqrygIM8vlPgWQ3AHrHHWmVWs6WHSntKCN7w319L04GJ7GzCaMWDC
jv6N8A9pX3syAWBobSYLZP+iuzQTs22SVve6GBkCAwEAAaOCASIwggEeMAkGA1Ud
EwQCMAAwCwYDVR0PBAQDAgXgMB0GA1UdDgQWBBSvvgs7mYU0AoFIV3KkSLN/bDWe
3DBeBgNVHSMEVzBVoUikRjBEMQswCQYDVQQGEwJVUzEUMBIGA1UECgwLcmFpbm1h
Y2hpbmUxHzAdBgNVBAMMFnJhaW5tYWNoaW5lLWRldi1jZXJ0czGCCQDzn90dvu3G
rzA6BglghkgBhvhCAQQELRYraHR0cDovL25zLnRyZW1lbmQucm8vcmFpbm1hY2hp
bmUvY2EtY3JsLnBlbTBJBglghkgBhvhCAQMEPBY6aHR0cDovL25zLnRyZW1lbmQu
cm8vcmFpbm1hY2hpbmUvcmV2b2NhdGlvbi11cmwvY2EtY3JsLnBlbTANBgkqhkiG
9w0BAQUFAAOCAQEAZifEgLARBowv/a2asWio55xZlib3pRrPGr/2Niv3Obf9KcBt
3GhbqRBVcEnVCq3ht8Ryt3O84PA5lqmjrctm61U+3XkUoXrsoZmecgRm0a5fI3TO
aHPxnuwIl8qBusOLzuXNLkgCQzUEd5Okog4oSw9sv4g0riCFmGnsDfaj7rEgLKN6
z8HSu4HE+4I4srh/+gnVh7aXaVWzP2QG2rLcvLFq3jIUKs0QXRDZyoizrjYjTK3e
8ZF57S3+lAqVXBofry6Z5EQ00nDyq8kIXWbjbuvwfBw0yMzuVmNuQQIWpqCDxJB/
Q2QdOn3aWPphgOhpwSubxmOpaxrRyeJnt1E8Aw==
-----END CERTIFICATE-----
