Certificate:
    Data:
        Version: 3 (0x2)
        Serial Number: 17592205133159 (0x100001234567)
    Signature Algorithm: sha1WithRSAEncryption
        Issuer: C=US, O=rainmachine, CN=rainmachine-dev-certs1
        Validity
            Not Before: Aug 10 12:50:53 2015 GMT
            Not After : Sep 21 12:50:53 2045 GMT
        Subject: C=US, O=rainmachine, CN=rainmachine-dev-certs1-encrypt
        Subject Public Key Info:
            Public Key Algorithm: rsaEncryption
                Public-Key: (2048 bit)
                Modulus:
                    00:dd:75:db:c2:76:0e:d9:3a:b1:f9:ef:6a:89:f2:
                    f9:f4:1a:4a:c1:a4:97:d1:dd:c7:ed:63:65:19:f5:
                    a7:51:f4:57:18:64:10:4d:37:f3:7e:95:0a:73:f1:
                    58:f2:e4:72:c7:ca:dc:ad:3f:f7:ff:2e:e5:b1:71:
                    c7:73:ed:6a:e9:8f:66:29:08:74:54:ca:5c:72:9e:
                    a4:6c:a4:3d:5e:b3:6a:61:e2:5a:6b:3b:e3:63:a5:
                    fa:77:81:6a:5b:46:6e:2d:72:a3:21:5c:ba:3f:94:
                    70:db:a5:df:5a:63:78:da:6f:21:78:1c:56:e8:bc:
                    eb:bd:8c:5a:51:3f:b9:a7:c4:a3:a4:6e:74:f4:36:
                    8a:79:4a:49:bd:34:72:f0:29:38:91:c4:ae:16:11:
                    8a:18:ed:c1:f1:23:af:b0:96:74:bf:65:b5:f8:45:
                    05:d4:28:cc:c7:a6:3c:a6:c0:63:61:9d:5a:a6:2a:
                    f9:4e:4f:4d:ac:d0:63:ff:af:5e:db:40:b0:93:2c:
                    b5:1c:8c:9c:17:06:52:ad:a6:cf:02:e8:9f:dd:cc:
                    98:31:b2:2e:eb:af:91:95:ca:6b:f4:50:7d:ba:44:
                    4e:9d:b2:12:c1:35:03:9c:f0:f1:ce:d9:d1:32:e3:
                    00:ec:45:af:b7:c3:44:82:8d:e6:68:00:22:70:53:
                    d3:6d
                Exponent: 65537 (0x10001)
        X509v3 extensions:
            X509v3 Basic Constraints: 
                CA:FALSE
            X509v3 Key Usage: 
                Digital Signature, Non Repudiation, Key Encipherment
            X509v3 Subject Key Identifier: 
                80:A8:A2:19:4D:8E:98:A2:F9:F3:E5:E7:D3:8D:8E:06:68:48:8B:E8
            X509v3 Authority Key Identifier: 
                DirName:/C=US/O=rainmachine/CN=rainmachine-dev-certs1
                serial:F3:9F:DD:1D:BE:ED:C6:AF

    Signature Algorithm: sha1WithRSAEncryption
         8d:94:a9:29:2a:9a:43:2d:31:7e:ef:a5:21:11:b4:95:b6:cd:
         fc:c4:04:28:7a:4f:6f:6b:a1:bb:28:90:d0:e4:48:65:c3:89:
         20:18:3a:73:16:ce:47:69:0c:d6:e2:22:bb:76:ec:8f:bf:97:
         ce:e3:ba:60:30:37:1b:d2:45:e1:36:58:27:dd:c2:b3:b1:52:
         c9:81:82:84:03:7c:80:ae:5e:cc:40:73:e0:4c:58:98:aa:b5:
         a5:8d:8f:5b:e1:66:4e:73:a4:79:6d:8a:f8:c7:93:a6:72:95:
         d6:b8:b6:50:6f:a0:3d:86:62:fe:d8:73:3b:47:5c:ab:74:4f:
         9e:bd:75:37:8d:51:31:c2:57:48:3a:ef:d3:84:4a:11:09:88:
         2d:09:34:b4:50:85:40:07:bf:8b:ee:f9:0f:d6:ad:c3:f3:3c:
         f5:42:d7:55:d2:f4:e0:28:df:e8:4c:d2:a2:9a:4d:b1:a6:87:
         c6:61:07:3e:92:bc:09:66:9b:fd:8b:3f:fd:44:46:43:5b:e3:
         b5:6c:4a:10:21:fa:4b:2c:1d:e4:be:d3:c7:e7:79:77:7f:dc:
         e4:82:3a:23:35:f6:ce:e2:55:d6:67:8c:05:37:c4:31:db:0f:
         7d:09:a9:fb:e6:2b:60:0c:b2:07:3e:94:8e:2a:06:c1:35:d4:
         54:9e:47:3a
-----BEGIN CERTIFICATE-----
MIIDqzCCApOgAwIBAgIGEAABI0VnMA0GCSqGSIb3DQEBBQUAMEQxCzAJBgNVBAYT
AlVTMRQwEgYDVQQKDAtyYWlubWFjaGluZTEfMB0GA1UEAwwWcmFpbm1hY2hpbmUt
ZGV2LWNlcnRzMTAeFw0xNTA4MTAxMjUwNTNaFw00NTA5MjExMjUwNTNaMEwxCzAJ
BgNVBAYTAlVTMRQwEgYDVQQKDAtyYWlubWFjaGluZTEnMCUGA1UEAwwecmFpbm1h
Y2hpbmUtZGV2LWNlcnRzMS1lbmNyeXB0MIIBIjANBgkqhkiG9w0BAQEFAAOCAQ8A
MIIBCgKCAQEA3XXbwnYO2Tqx+e9qifL59BpKwaSX0d3H7WNlGfWnUfRXGGQQTTfz
fpUKc/FY8uRyx8rcrT/3/y7lsXHHc+1q6Y9mKQh0VMpccp6kbKQ9XrNqYeJaazvj
Y6X6d4FqW0ZuLXKjIVy6P5Rw26XfWmN42m8heBxW6LzrvYxaUT+5p8SjpG509DaK
eUpJvTRy8Ck4kcSuFhGKGO3B8SOvsJZ0v2W1+EUF1CjMx6Y8psBjYZ1apir5Tk9N
rNBj/69e20Cwkyy1HIycFwZSrabPAuif3cyYMbIu66+Rlcpr9FB9ukROnbISwTUD
nPDxztnRMuMA7EWvt8NEgo3maAAicFPTbQIDAQABo4GaMIGXMAkGA1UdEwQCMAAw
CwYDVR0PBAQDAgXgMB0GA1UdDgQWBBSAqKIZTY6Yovnz5efTjY4GaEiL6DBeBgNV
HSMEVzBVoUikRjBEMQswCQYDVQQGEwJVUzEUMBIGA1UECgwLcmFpbm1hY2hpbmUx
HzAdBgNVBAMMFnJhaW5tYWNoaW5lLWRldi1jZXJ0czGCCQDzn90dvu3GrzANBgkq
hkiG9w0BAQUFAAOCAQEAjZSpKSqaQy0xfu+lIRG0lbbN/MQEKHpPb2uhuyiQ0ORI
ZcOJIBg6cxbOR2kM1uIiu3bsj7+XzuO6YDA3G9JF4TZYJ93Cs7FSyYGChAN8gK5e
zEBz4ExYmKq1pY2PW+FmTnOkeW2K+MeTpnKV1ri2UG+gPYZi/thzO0dcq3RPnr11
N41RMcJXSDrv04RKEQmILQk0tFCFQAe/i+75D9atw/M89ULXVdL04Cjf6EzSoppN
saaHxmEHPpK8CWab/Ys//URGQ1vjtWxKECH6Sywd5L7Tx+d5d3/c5II6IzX2zuJV
1meMBTfEMdsPfQmp++YrYAyyBz6UjioGwTXUVJ5HOg==
-----END CERTIFICATE-----
